target datalayout = "e-m:e-p270:32:32-p271:32:32-p272:64:64-i64:64-i128:128-f80:128-n8:16:32:64-S128"
target triple = "x86_64-unknown-linux-gnu"

%"class.grpc_event_engine::experimental::WorkStealingThreadPool" = type { %"class.grpc_event_engine::experimental::ThreadPool", %"class.std::shared_ptr" }
%"class.grpc_event_engine::experimental::ThreadPool" = type { %"class.grpc_event_engine::experimental::Forkable" }
%"class.grpc_event_engine::experimental::Forkable" = type { ptr }
%"class.std::shared_ptr" = type { %"class.std::__shared_ptr" }
%"class.std::__shared_ptr" = type { ptr, %"class.std::__shared_count" }
%"class.std::__shared_count" = type { ptr }
%"class.absl::lts_20230802::AnyInvocable" = type { %"class.absl::lts_20230802::internal_any_invocable::Impl" }
%"class.absl::lts_20230802::internal_any_invocable::Impl" = type { %"class.absl::lts_20230802::internal_any_invocable::CoreImpl" }
%"class.absl::lts_20230802::internal_any_invocable::CoreImpl" = type { %"union.absl::lts_20230802::internal_any_invocable::TypeErasedState", ptr, ptr }
%"union.absl::lts_20230802::internal_any_invocable::TypeErasedState" = type { %struct.anon }
%struct.anon = type { ptr, i64 }
%"class.grpc_event_engine::experimental::SelfDeletingClosure" = type { %"class.grpc_event_engine::experimental::EventEngine::Closure", [8 x i8], %"class.absl::lts_20230802::AnyInvocable", %"class.absl::lts_20230802::AnyInvocable" }
%"class.grpc_event_engine::experimental::EventEngine::Closure" = type { ptr }

; Function Attrs: mustprogress nounwind uwtable
define linkonce_odr noundef ptr @_ZNKSt12__shared_ptrIN17grpc_event_engine12experimental22WorkStealingThreadPool26WorkStealingThreadPoolImplELN9__gnu_cxx12_Lock_policyE2EE3getEv(ptr noundef nonnull align 8 dereferenceable(16) %this) #5 comdat align 2 {
entry:
  %this.addr = alloca ptr, align 8
  store ptr %this, ptr %this.addr, align 8
  %this1 = load ptr, ptr %this.addr, align 8
  %_M_ptr = getelementptr inbounds %"class.std::__shared_ptr", ptr %this1, i32 0, i32 0
  %0 = load ptr, ptr %_M_ptr, align 8
  ret ptr %0
}

; Function Attrs: mustprogress nounwind uwtable
define linkonce_odr void @_ZN4absl12lts_2023080222internal_any_invocable8CoreImplILb0EvJEEC2Ev(ptr noundef nonnull align 16 dereferenceable(32) %this) unnamed_addr #5 comdat align 2 {
entry:
  %this.addr = alloca ptr, align 8
  store ptr %this, ptr %this.addr, align 8
  %this1 = load ptr, ptr %this.addr, align 8
  %manager_ = getelementptr inbounds %"class.absl::lts_20230802::internal_any_invocable::CoreImpl", ptr %this1, i32 0, i32 1
  store ptr @_ZN4absl12lts_2023080222internal_any_invocable12EmptyManagerENS1_14FunctionToCallEPNS1_15TypeErasedStateES4_, ptr %manager_, align 16
  %invoker_ = getelementptr inbounds %"class.absl::lts_20230802::internal_any_invocable::CoreImpl", ptr %this1, i32 0, i32 2
  store ptr null, ptr %invoker_, align 8
  ret void
}

; Function Attrs: mustprogress nounwind uwtable
define linkonce_odr void @_ZN4absl12lts_2023080222internal_any_invocable8CoreImplILb0EvJEED2Ev(ptr noundef nonnull align 16 dereferenceable(32) %this) unnamed_addr #5 comdat align 2 {
entry:
  %this.addr = alloca ptr, align 8
  store ptr %this, ptr %this.addr, align 8
  %this1 = load ptr, ptr %this.addr, align 8
  %manager_ = getelementptr inbounds %"class.absl::lts_20230802::internal_any_invocable::CoreImpl", ptr %this1, i32 0, i32 1
  %0 = load ptr, ptr %manager_, align 16
  %state_ = getelementptr inbounds %"class.absl::lts_20230802::internal_any_invocable::CoreImpl", ptr %this1, i32 0, i32 0
  %state_2 = getelementptr inbounds %"class.absl::lts_20230802::internal_any_invocable::CoreImpl", ptr %this1, i32 0, i32 0
  call void %0(i1 noundef zeroext true, ptr noundef %state_, ptr noundef %state_2) #3
  ret void
}

; Function Attrs: mustprogress nounwind uwtable
define linkonce_odr noundef ptr @_ZNKSt19__shared_ptr_accessIN17grpc_event_engine12experimental22WorkStealingThreadPool26WorkStealingThreadPoolImplELN9__gnu_cxx12_Lock_policyE2ELb0ELb0EE6_M_getEv(ptr noundef nonnull align 1 dereferenceable(1) %this) #5 comdat align 2 {
entry:
  %this.addr = alloca ptr, align 8
  store ptr %this, ptr %this.addr, align 8
  %this1 = load ptr, ptr %this.addr, align 8
  %call = call noundef ptr @_ZNKSt12__shared_ptrIN17grpc_event_engine12experimental22WorkStealingThreadPool26WorkStealingThreadPoolImplELN9__gnu_cxx12_Lock_policyE2EE3getEv(ptr noundef nonnull align 8 dereferenceable(16) %this1) #3
  ret ptr %call
}

; Function Attrs: mustprogress nounwind uwtable
define linkonce_odr void @_ZN17grpc_event_engine12experimental11EventEngine7ClosureC2Ev(ptr noundef nonnull align 8 dereferenceable(8) %this) unnamed_addr #5 comdat align 2 {
entry:
  %this.addr = alloca ptr, align 8
  store ptr %this, ptr %this.addr, align 8
  %this1 = load ptr, ptr %this.addr, align 8
  store ptr getelementptr inbounds ({ [5 x ptr] }, ptr @_ZTVN17grpc_event_engine12experimental11EventEngine7ClosureE, i32 0, i32 0, i32 2), ptr %this1, align 8
  ret void
}

; Function Attrs: mustprogress nounwind uwtable
define linkonce_odr void @_ZN4absl12lts_2023080222internal_any_invocable4ImplIFvvEEC2Ev(ptr noundef nonnull align 16 dereferenceable(32) %this) unnamed_addr #5 comdat align 2 {
entry:
  %this.addr = alloca ptr, align 8
  store ptr %this, ptr %this.addr, align 8
  %this1 = load ptr, ptr %this.addr, align 8
  call void @_ZN4absl12lts_2023080222internal_any_invocable8CoreImplILb0EvJEEC2Ev(ptr noundef nonnull align 16 dereferenceable(32) %this1) #3
  ret void
}

; Function Attrs: mustprogress nounwind uwtable
define linkonce_odr void @_ZN4absl12lts_2023080222internal_any_invocable8CoreImplILb0EvJEEC2EOS3_(ptr noundef nonnull align 16 dereferenceable(32) %this, ptr noundef nonnull align 16 dereferenceable(32) %other) unnamed_addr #5 comdat align 2 {
entry:
  %this.addr = alloca ptr, align 8
  %other.addr = alloca ptr, align 8
  store ptr %this, ptr %this.addr, align 8
  store ptr %other, ptr %other.addr, align 8
  %this1 = load ptr, ptr %this.addr, align 8
  %0 = load ptr, ptr %other.addr, align 8
  %manager_ = getelementptr inbounds %"class.absl::lts_20230802::internal_any_invocable::CoreImpl", ptr %0, i32 0, i32 1
  %1 = load ptr, ptr %manager_, align 16
  %2 = load ptr, ptr %other.addr, align 8
  %state_2 = getelementptr inbounds %"class.absl::lts_20230802::internal_any_invocable::CoreImpl", ptr %2, i32 0, i32 0
  %state_3 = getelementptr inbounds %"class.absl::lts_20230802::internal_any_invocable::CoreImpl", ptr %this1, i32 0, i32 0
  call void %1(i1 noundef zeroext false, ptr noundef %state_2, ptr noundef %state_3) #3
  %3 = load ptr, ptr %other.addr, align 8
  %manager_4 = getelementptr inbounds %"class.absl::lts_20230802::internal_any_invocable::CoreImpl", ptr %3, i32 0, i32 1
  %4 = load ptr, ptr %manager_4, align 16
  %manager_5 = getelementptr inbounds %"class.absl::lts_20230802::internal_any_invocable::CoreImpl", ptr %this1, i32 0, i32 1
  store ptr %4, ptr %manager_5, align 16
  %5 = load ptr, ptr %other.addr, align 8
  %invoker_ = getelementptr inbounds %"class.absl::lts_20230802::internal_any_invocable::CoreImpl", ptr %5, i32 0, i32 2
  %6 = load ptr, ptr %invoker_, align 8
  %invoker_6 = getelementptr inbounds %"class.absl::lts_20230802::internal_any_invocable::CoreImpl", ptr %this1, i32 0, i32 2
  store ptr %6, ptr %invoker_6, align 8
  %7 = load ptr, ptr %other.addr, align 8
  %manager_7 = getelementptr inbounds %"class.absl::lts_20230802::internal_any_invocable::CoreImpl", ptr %7, i32 0, i32 1
  store ptr @_ZN4absl12lts_2023080222internal_any_invocable12EmptyManagerENS1_14FunctionToCallEPNS1_15TypeErasedStateES4_, ptr %manager_7, align 16
  %8 = load ptr, ptr %other.addr, align 8
  %invoker_8 = getelementptr inbounds %"class.absl::lts_20230802::internal_any_invocable::CoreImpl", ptr %8, i32 0, i32 2
  store ptr null, ptr %invoker_8, align 8
  ret void
}

; Function Attrs: mustprogress nounwind uwtable
define linkonce_odr void @_ZN4absl12lts_2023080222internal_any_invocable4ImplIFvvEED2Ev(ptr noundef nonnull align 16 dereferenceable(32) %this) unnamed_addr #5 comdat align 2 {
entry:
  %this.addr = alloca ptr, align 8
  store ptr %this, ptr %this.addr, align 8
  %this1 = load ptr, ptr %this.addr, align 8
  call void @_ZN4absl12lts_2023080222internal_any_invocable8CoreImplILb0EvJEED2Ev(ptr noundef nonnull align 16 dereferenceable(32) %this1) #3
  ret void
}

; Function Attrs: mustprogress nounwind uwtable
define linkonce_odr noundef ptr @_ZNKSt19__shared_ptr_accessIN17grpc_event_engine12experimental22WorkStealingThreadPool26WorkStealingThreadPoolImplELN9__gnu_cxx12_Lock_policyE2ELb0ELb0EEptEv(ptr noundef nonnull align 1 dereferenceable(1) %this) #5 comdat align 2 {
entry:
  %this.addr = alloca ptr, align 8
  store ptr %this, ptr %this.addr, align 8
  %this1 = load ptr, ptr %this.addr, align 8
  %call = call noundef ptr @_ZNKSt19__shared_ptr_accessIN17grpc_event_engine12experimental22WorkStealingThreadPool26WorkStealingThreadPoolImplELN9__gnu_cxx12_Lock_policyE2ELb0ELb0EE6_M_getEv(ptr noundef nonnull align 1 dereferenceable(1) %this1) #3
  ret ptr %call
}

; Function Attrs: mustprogress nounwind uwtable
define linkonce_odr void @_ZN17grpc_event_engine12experimental19SelfDeletingClosureC2EN4absl12lts_2023080212AnyInvocableIFvvEEES6_(ptr noundef nonnull align 16 dereferenceable(80) %this, ptr noundef %cb, ptr noundef %dest_cb) unnamed_addr #5 comdat align 2 {
entry:
  %this.addr = alloca ptr, align 8
  %cb.indirect_addr = alloca ptr, align 8
  %dest_cb.indirect_addr = alloca ptr, align 8
  store ptr %this, ptr %this.addr, align 8
  store ptr %cb, ptr %cb.indirect_addr, align 8
  store ptr %dest_cb, ptr %dest_cb.indirect_addr, align 8
  %this1 = load ptr, ptr %this.addr, align 8
  call void @_ZN17grpc_event_engine12experimental11EventEngine7ClosureC2Ev(ptr noundef nonnull align 8 dereferenceable(8) %this1) #3
  store ptr getelementptr inbounds ({ [5 x ptr] }, ptr @_ZTVN17grpc_event_engine12experimental19SelfDeletingClosureE, i32 0, i32 0, i32 2), ptr %this1, align 16
  %cb_ = getelementptr inbounds %"class.grpc_event_engine::experimental::SelfDeletingClosure", ptr %this1, i32 0, i32 2
  call void @_ZN4absl12lts_2023080212AnyInvocableIFvvEEC2EOS3_(ptr noundef nonnull align 16 dereferenceable(32) %cb_, ptr noundef nonnull align 16 dereferenceable(32) %cb) #3
  %dest_cb_ = getelementptr inbounds %"class.grpc_event_engine::experimental::SelfDeletingClosure", ptr %this1, i32 0, i32 3
  call void @_ZN4absl12lts_2023080212AnyInvocableIFvvEEC2EOS3_(ptr noundef nonnull align 16 dereferenceable(32) %dest_cb_, ptr noundef nonnull align 16 dereferenceable(32) %dest_cb) #3
  ret void
}

; Function Attrs: mustprogress nounwind uwtable
define linkonce_odr void @_ZN4absl12lts_2023080212AnyInvocableIFvvEEC2EDn(ptr noundef nonnull align 16 dereferenceable(32) %this, ptr %0) unnamed_addr #5 comdat align 2 {
entry:
  %this.addr = alloca ptr, align 8
  %.addr = alloca ptr, align 8
  store ptr %this, ptr %this.addr, align 8
  store ptr %0, ptr %.addr, align 8
  %this1 = load ptr, ptr %this.addr, align 8
  call void @_ZN4absl12lts_2023080222internal_any_invocable4ImplIFvvEEC2Ev(ptr noundef nonnull align 16 dereferenceable(32) %this1) #3
  ret void
}

; Function Attrs: mustprogress nounwind uwtable
define linkonce_odr void @_ZN4absl12lts_2023080222internal_any_invocable4ImplIFvvEEC2EOS4_(ptr noundef nonnull align 16 dereferenceable(32) %this, ptr noundef nonnull align 16 dereferenceable(32) %0) unnamed_addr #5 comdat align 2 {
entry:
  %this.addr = alloca ptr, align 8
  %.addr = alloca ptr, align 8
  store ptr %this, ptr %this.addr, align 8
  store ptr %0, ptr %.addr, align 8
  %this1 = load ptr, ptr %this.addr, align 8
  %1 = load ptr, ptr %.addr, align 8
  call void @_ZN4absl12lts_2023080222internal_any_invocable8CoreImplILb0EvJEEC2EOS3_(ptr noundef nonnull align 16 dereferenceable(32) %this1, ptr noundef nonnull align 16 dereferenceable(32) %1) #3
  ret void
}

; Function Attrs: mustprogress nounwind uwtable
define linkonce_odr void @_ZN4absl12lts_2023080212AnyInvocableIFvvEED2Ev(ptr noundef nonnull align 16 dereferenceable(32) %this) unnamed_addr #5 comdat align 2 {
entry:
  %this.addr = alloca ptr, align 8
  store ptr %this, ptr %this.addr, align 8
  %this1 = load ptr, ptr %this.addr, align 8
  call void @_ZN4absl12lts_2023080222internal_any_invocable4ImplIFvvEED2Ev(ptr noundef nonnull align 16 dereferenceable(32) %this1) #3
  ret void
}

; Function Attrs: mustprogress uwtable
define void @_ZN17grpc_event_engine12experimental22WorkStealingThreadPool3RunEPNS0_11EventEngine7ClosureE(ptr noundef nonnull align 8 dereferenceable(24) %this, ptr noundef %closure) unnamed_addr #4 align 2 {
entry:
  %this.addr = alloca ptr, align 8
  %closure.addr = alloca ptr, align 8
  store ptr %this, ptr %this.addr, align 8
  store ptr %closure, ptr %closure.addr, align 8
  %this1 = load ptr, ptr %this.addr, align 8
  %pool_ = getelementptr inbounds %"class.grpc_event_engine::experimental::WorkStealingThreadPool", ptr %this1, i32 0, i32 1
  %call = call noundef ptr @_ZNKSt19__shared_ptr_accessIN17grpc_event_engine12experimental22WorkStealingThreadPool26WorkStealingThreadPoolImplELN9__gnu_cxx12_Lock_policyE2ELb0ELb0EEptEv(ptr noundef nonnull align 1 dereferenceable(1) %pool_) #3
  %0 = load ptr, ptr %closure.addr, align 8
  call void @_ZN17grpc_event_engine12experimental22WorkStealingThreadPool26WorkStealingThreadPoolImpl3RunEPNS0_11EventEngine7ClosureE(ptr noundef nonnull align 8 dereferenceable(632) %call, ptr noundef %0)
  ret void
}

; Function Attrs: mustprogress uwtable
define linkonce_odr noundef ptr @_ZN17grpc_event_engine12experimental19SelfDeletingClosure6CreateEN4absl12lts_2023080212AnyInvocableIFvvEEE(ptr noundef %cb) #4 comdat align 2 personality ptr @__gxx_personality_v0 {
entry:
  %cb.indirect_addr = alloca ptr, align 8
  %agg.tmp = alloca %"class.absl::lts_20230802::AnyInvocable", align 16
  %agg.tmp1 = alloca %"class.absl::lts_20230802::AnyInvocable", align 16
  %exn.slot = alloca ptr, align 8
  %ehselector.slot = alloca i32, align 4
  %cleanup.isactive = alloca i1, align 1
  store ptr %cb, ptr %cb.indirect_addr, align 8
  %call = call noalias noundef nonnull ptr @_Znwm(i64 noundef 80) #22
  store i1 true, ptr %cleanup.isactive, align 1
  call void @_ZN4absl12lts_2023080212AnyInvocableIFvvEEC2EOS3_(ptr noundef nonnull align 16 dereferenceable(32) %agg.tmp, ptr noundef nonnull align 16 dereferenceable(32) %cb) #3
  call void @_ZN4absl12lts_2023080212AnyInvocableIFvvEEC2EDn(ptr noundef nonnull align 16 dereferenceable(32) %agg.tmp1, ptr null) #3
  invoke void @_ZN17grpc_event_engine12experimental19SelfDeletingClosureC2EN4absl12lts_2023080212AnyInvocableIFvvEEES6_(ptr noundef nonnull align 16 dereferenceable(80) %call, ptr noundef %agg.tmp, ptr noundef %agg.tmp1)
          to label %invoke.cont unwind label %lpad

invoke.cont:                                      ; preds = %entry
  store i1 false, ptr %cleanup.isactive, align 1
  call void @_ZN4absl12lts_2023080212AnyInvocableIFvvEED2Ev(ptr noundef nonnull align 16 dereferenceable(32) %agg.tmp1) #3
  call void @_ZN4absl12lts_2023080212AnyInvocableIFvvEED2Ev(ptr noundef nonnull align 16 dereferenceable(32) %agg.tmp) #3
  ret ptr %call

lpad:                                             ; preds = %entry
  %0 = landingpad { ptr, i32 }
          cleanup
  %1 = extractvalue { ptr, i32 } %0, 0
  store ptr %1, ptr %exn.slot, align 8
  %2 = extractvalue { ptr, i32 } %0, 1
  store i32 %2, ptr %ehselector.slot, align 4
  call void @_ZN4absl12lts_2023080212AnyInvocableIFvvEED2Ev(ptr noundef nonnull align 16 dereferenceable(32) %agg.tmp1) #3
  call void @_ZN4absl12lts_2023080212AnyInvocableIFvvEED2Ev(ptr noundef nonnull align 16 dereferenceable(32) %agg.tmp) #3
  %cleanup.is_active = load i1, ptr %cleanup.isactive, align 1
  br i1 %cleanup.is_active, label %cleanup.action, label %cleanup.done

cleanup.action:                                   ; preds = %lpad
  call void @_ZdlPv(ptr noundef %call) #21
  br label %cleanup.done

cleanup.done:                                     ; preds = %cleanup.action, %lpad
  br label %eh.resume

eh.resume:                                        ; preds = %cleanup.done
  %exn = load ptr, ptr %exn.slot, align 8
  %sel = load i32, ptr %ehselector.slot, align 4
  %lpad.val = insertvalue { ptr, i32 } poison, ptr %exn, 0
  %lpad.val2 = insertvalue { ptr, i32 } %lpad.val, i32 %sel, 1
  resume { ptr, i32 } %lpad.val2
}

; Function Attrs: mustprogress nounwind uwtable
define linkonce_odr void @_ZN4absl12lts_2023080212AnyInvocableIFvvEEC2EOS3_(ptr noundef nonnull align 16 dereferenceable(32) %this, ptr noundef nonnull align 16 dereferenceable(32) %0) unnamed_addr #5 comdat align 2 {
entry:
  %this.addr = alloca ptr, align 8
  %.addr = alloca ptr, align 8
  store ptr %this, ptr %this.addr, align 8
  store ptr %0, ptr %.addr, align 8
  %this1 = load ptr, ptr %this.addr, align 8
  %1 = load ptr, ptr %.addr, align 8
  call void @_ZN4absl12lts_2023080222internal_any_invocable4ImplIFvvEEC2EOS4_(ptr noundef nonnull align 16 dereferenceable(32) %this1, ptr noundef nonnull align 16 dereferenceable(32) %1) #3
  ret void
}

; Function Attrs: mustprogress uwtable
define void @_ZN17grpc_event_engine12experimental22WorkStealingThreadPool3RunEN4absl12lts_2023080212AnyInvocableIFvvEEE(ptr noundef nonnull align 8 dereferenceable(24) %this, ptr noundef %callback) unnamed_addr #4 align 2 personality ptr @__gxx_personality_v0 {
entry:
  %this.addr = alloca ptr, align 8
  %callback.indirect_addr = alloca ptr, align 8
  %agg.tmp = alloca %"class.absl::lts_20230802::AnyInvocable", align 16
  %exn.slot = alloca ptr, align 8
  %ehselector.slot = alloca i32, align 4
  store ptr %this, ptr %this.addr, align 8
  store ptr %callback, ptr %callback.indirect_addr, align 8
  %this1 = load ptr, ptr %this.addr, align 8
  call void @_ZN4absl12lts_2023080212AnyInvocableIFvvEEC2EOS3_(ptr noundef nonnull align 16 dereferenceable(32) %agg.tmp, ptr noundef nonnull align 16 dereferenceable(32) %callback) #3
  %call = invoke noundef ptr @_ZN17grpc_event_engine12experimental19SelfDeletingClosure6CreateEN4absl12lts_2023080212AnyInvocableIFvvEEE(ptr noundef %agg.tmp)
          to label %invoke.cont unwind label %lpad

invoke.cont:                                      ; preds = %entry
  invoke void @_ZN17grpc_event_engine12experimental22WorkStealingThreadPool3RunEPNS0_11EventEngine7ClosureE(ptr noundef nonnull align 8 dereferenceable(24) %this1, ptr noundef %call)
          to label %invoke.cont2 unwind label %lpad

invoke.cont2:                                     ; preds = %invoke.cont
  call void @_ZN4absl12lts_2023080212AnyInvocableIFvvEED2Ev(ptr noundef nonnull align 16 dereferenceable(32) %agg.tmp) #3
  ret void

lpad:                                             ; preds = %invoke.cont, %entry
  %0 = landingpad { ptr, i32 }
          cleanup
  %1 = extractvalue { ptr, i32 } %0, 0
  store ptr %1, ptr %exn.slot, align 8
  %2 = extractvalue { ptr, i32 } %0, 1
  store i32 %2, ptr %ehselector.slot, align 4
  call void @_ZN4absl12lts_2023080212AnyInvocableIFvvEED2Ev(ptr noundef nonnull align 16 dereferenceable(32) %agg.tmp) #3
  br label %eh.resume

eh.resume:                                        ; preds = %lpad
  %exn = load ptr, ptr %exn.slot, align 8
  %sel = load i32, ptr %ehselector.slot, align 4
  %lpad.val = insertvalue { ptr, i32 } poison, ptr %exn, 0
  %lpad.val3 = insertvalue { ptr, i32 } %lpad.val, i32 %sel, 1
  resume { ptr, i32 } %lpad.val3
}